ccopy_reg
_reconstructor
p0
(csklearn.linear_model.base
LinearRegression
p1
c__builtin__
object
p2
Ntp3
Rp4
(dp5
S'normalize'
p6
I00
sS'n_jobs'
p7
I-1
sS'rank_'
p8
I4
sS'fit_intercept'
p9
I01
sS'_residues'
p10
cnumpy.core.multiarray
scalar
p11
(cnumpy
dtype
p12
(S'f8'
p13
I0
I1
tp14
Rp15
(I3
S'<'
p16
NNNI-1
I-1
I0
tp17
bS'u\xcb&UjC\x11A'
p18
tp19
Rp20
sS'coef_'
p21
cnumpy.core.multiarray
_reconstruct
p22
(cnumpy
ndarray
p23
(I0
tp24
S'b'
p25
tp26
Rp27
(I1
(I4
tp28
g15
I00
S'\xef\xed\x82\x9a\x16\x83C@\xafG\x13>\xb5N\xdd\xbfD\xd5\xacSm\x9c`\xbf\xa2\xbf\xe5\x0f\x1e\xa1\xb9?'
p29
tp30
bsS'copy_X'
p31
I01
sS'intercept_'
p32
g11
(g15
S'\x83k\xe6x\xcf\xee5@'
p33
tp34
Rp35
sS'singular_'
p36
g22
(g23
(I0
tp37
g25
tp38
Rp39
(I1
(I4
tp40
g15
I00
S'\xa5\x85\xf02\xc1\x17Z@o\n\xf1_\xc3\xb1U@g\xca3dR\x93T@\xc0\xeb\xf6\x97p\xccN@'
p41
tp42
bsb.